target datalayout = "e-m:e-p270:32:32-p271:32:32-p272:64:64-i64:64-i128:128-f80:128-n8:16:32:64-S128"
target triple = "x86_64-pc-linux-gnu"

%struct.Vec_Int_t_ = type { i32, i32, ptr }
%struct.Gia_Man_t_ = type { ptr, ptr, i32, i32, i32, i32, ptr, ptr, i32, i32, i32, ptr, ptr, %struct.Vec_Int_t_, %struct.Vec_Int_t_, i32, i32, i32, %struct.Vec_Int_t_, ptr, ptr, ptr, i32, i32, i32, i32, ptr, ptr, ptr, ptr, ptr, i32, i32, ptr, i32, ptr, ptr, ptr, ptr, ptr, ptr, ptr, ptr, ptr, ptr, ptr, ptr, ptr, ptr, ptr, ptr, ptr, ptr, %struct.Vec_Int_t_, %struct.Vec_Int_t_, ptr, ptr, ptr, ptr, ptr, ptr, ptr, ptr, ptr, ptr, ptr, ptr, ptr, ptr, ptr, ptr, ptr, ptr, ptr, ptr, ptr, i32, float, float, ptr, ptr, i32, ptr, ptr, ptr, ptr, ptr, ptr, ptr, ptr, ptr, ptr, ptr, ptr, ptr, ptr, ptr, i64, i64, ptr, ptr, i32, i32, i32, i32, i32, i32, i32, i32, i32, i32, i32, i32, ptr, ptr, ptr, ptr, ptr, ptr, ptr, ptr, i32, i32, i32, ptr, i32, i32, ptr, ptr, ptr, ptr, ptr, ptr, i32, i32, ptr, %struct.Vec_Int_t_, %struct.Vec_Int_t_, %struct.Vec_Int_t_, ptr, ptr, ptr }
%struct.Dch_Pars_t_ = type { i32, i32, i32, i32, i32, i32, i32, i32, i32, i32, i32, i32, i32, i32, i64, i32, i32 }

@.str.8 = private unnamed_addr constant [54 x i8] c"Created GIA manager for network with %d white boxes.\0A\00", align 1
@.str.9 = private unnamed_addr constant [10 x i8] c"test1.aig\00", align 1
@.str.10 = private unnamed_addr constant [10 x i8] c"test2.aig\00", align 1

; Function Attrs: nounwind uwtable
define ptr @Abc_NtkTestTimPerformSynthesis(ptr noundef %0, i32 noundef %1) #0 {
  %3 = alloca ptr, align 8
  %4 = alloca i32, align 4
  %5 = alloca ptr, align 8
  %6 = alloca ptr, align 8
  %7 = alloca ptr, align 8
  %8 = alloca %struct.Dch_Pars_t_, align 8
  %9 = alloca ptr, align 8
  store ptr %0, ptr %3, align 8
  store i32 %1, ptr %4, align 4
  store ptr %8, ptr %9, align 8
  %10 = load ptr, ptr %9, align 8
  call void @Dch_ManSetDefaultParams(ptr noundef %10)
  %11 = load ptr, ptr %3, align 8
  %12 = call ptr @Gia_ManToAig(ptr noundef %11, i32 noundef 0)
  store ptr %12, ptr %6, align 8
  %13 = load i32, ptr %4, align 4
  %14 = icmp ne i32 %13, 0
  br i1 %14, label %15, label %19

15:                                               ; preds = %2
  %16 = load ptr, ptr %6, align 8
  %17 = load ptr, ptr %9, align 8
  %18 = call ptr @Dar_ManChoiceNew(ptr noundef %16, ptr noundef %17)
  store ptr %18, ptr %6, align 8
  br label %23

19:                                               ; preds = %2
  %20 = load ptr, ptr %6, align 8
  store ptr %20, ptr %7, align 8
  %21 = call ptr @Dar_ManCompress2(ptr noundef %20, i32 noundef 1, i32 noundef 1, i32 noundef 1, i32 noundef 0, i32 noundef 0)
  store ptr %21, ptr %6, align 8
  %22 = load ptr, ptr %7, align 8
  call void @Aig_ManStop(ptr noundef %22)
  br label %23

23:                                               ; preds = %19, %15
  %24 = load ptr, ptr %6, align 8
  %25 = call ptr @Gia_ManFromAig(ptr noundef %24)
  store ptr %25, ptr %5, align 8
  %26 = load ptr, ptr %6, align 8
  call void @Aig_ManStop(ptr noundef %26)
  %27 = load ptr, ptr %5, align 8
  ret ptr %27
}

; Function Attrs: nounwind uwtable
define void @Abc_NtkTestTim(ptr noundef %0, i32 noundef %1) #0 {
  %3 = alloca ptr, align 8
  %4 = alloca i32, align 4
  %5 = alloca i32, align 4
  %6 = alloca ptr, align 8
  %7 = alloca ptr, align 8
  store ptr %0, ptr %3, align 8
  store i32 %1, ptr %4, align 4
  store i32 0, ptr %5, align 4
  %8 = load ptr, ptr %3, align 8
  %9 = call i32 @Abc_NtkToAig(ptr noundef %8)
  %10 = load ptr, ptr %3, align 8
  %11 = load i32, ptr %4, align 4
  %12 = call ptr @Abc_NtkTestTimDeriveGia(ptr noundef %10, i32 noundef %11)
  store ptr %12, ptr %6, align 8
  %13 = load ptr, ptr %6, align 8
  %14 = getelementptr inbounds %struct.Gia_Man_t_, ptr %13, i32 0, i32 95
  %15 = load ptr, ptr %14, align 8
  %16 = call i32 @Tim_ManBoxNum(ptr noundef %15)
  %17 = call i32 (ptr, ...) @printf(ptr noundef @.str.8, i32 noundef %16)
  %18 = load i32, ptr %4, align 4
  %19 = icmp ne i32 %18, 0
  br i1 %19, label %20, label %24

20:                                               ; preds = %2
  %21 = load ptr, ptr %6, align 8
  %22 = getelementptr inbounds %struct.Gia_Man_t_, ptr %21, i32 0, i32 95
  %23 = load ptr, ptr %22, align 8
  call void @Tim_ManPrint(ptr noundef %23)
  br label %24

24:                                               ; preds = %20, %2
  %25 = load ptr, ptr %6, align 8
  call void @Abc_NtkTestTimByWritingFile(ptr noundef %25, ptr noundef @.str.9)
  %26 = load ptr, ptr %6, align 8
  store ptr %26, ptr %7, align 8
  %27 = load i32, ptr %5, align 4
  %28 = call ptr @Abc_NtkTestTimPerformSynthesis(ptr noundef %26, i32 noundef %27)
  store ptr %28, ptr %6, align 8
  %29 = load ptr, ptr %7, align 8
  call void @Gia_ManStop(ptr noundef %29)
  %30 = load ptr, ptr %6, align 8
  call void @Abc_NtkTestTimByWritingFile(ptr noundef %30, ptr noundef @.str.10)
  %31 = load ptr, ptr %6, align 8
  call void @Gia_ManStop(ptr noundef %31)
  ret void
}