; Function Attrs: nounwind uwtable
define void @Abc_NtkTestTim(ptr noundef %0, i32 noundef %1) local_unnamed_addr #0 {
  %3 = alloca %struct.Dch_Pars_t_, align 8
  %4 = tail call i32 @Abc_NtkToAig(ptr noundef %0) #11
  %5 = tail call ptr @Abc_NtkTestTimDeriveGia(ptr noundef %0, i32 noundef %1)
  %6 = getelementptr inbounds nuw i8, ptr %5, i64 736
  %7 = load ptr, ptr %6, align 8
  %8 = tail call i32 @Tim_ManBoxNum(ptr noundef %7) #11
  %9 = tail call i32 (ptr, ...) @printf(ptr noundef nonnull dereferenceable(1) @.str.8, i32 noundef %8)
  %.not = icmp eq i32 %1, 0
  br i1 %.not, label %12, label %10

10:                                               ; preds = %2
  %11 = load ptr, ptr %6, align 8
  tail call void @Tim_ManPrint(ptr noundef %11) #11
  br label %12

12:                                               ; preds = %10, %2
  tail call void @Abc_NtkTestTimByWritingFile(ptr noundef nonnull %5, ptr noundef nonnull @.str.9)
  call void @llvm.lifetime.start.p0(i64 72, ptr nonnull %3)
  call void @Dch_ManSetDefaultParams(ptr noundef nonnull %3) #11
  %13 = call ptr @Gia_ManToAig(ptr noundef nonnull %5, i32 noundef 0) #11
  %14 = call ptr @Dar_ManCompress2(ptr noundef %13, i32 noundef 1, i32 noundef 1, i32 noundef 1, i32 noundef 0, i32 noundef 0) #11
  call void @Aig_ManStop(ptr noundef %13) #11
  %15 = call ptr @Gia_ManFromAig(ptr noundef %14) #11
  call void @Aig_ManStop(ptr noundef %14) #11
  call void @llvm.lifetime.end.p0(i64 72, ptr nonnull %3)
  call void @Gia_ManStop(ptr noundef nonnull %5) #11
  call void @Abc_NtkTestTimByWritingFile(ptr noundef %15, ptr noundef nonnull @.str.10)
  call void @Gia_ManStop(ptr noundef %15) #11
  ret void
}